target datalayout = "e-m:e-p270:32:32-p271:32:32-p272:64:64-i64:64-i128:128-f80:128-n8:16:32:64-S128"
target triple = "x86_64-pc-linux-gnu"

%struct.ossl_param_st = type { ptr, i32, ptr, i64, i64 }

; Function Attrs: nounwind uwtable
define internal i32 @set_fromdata_string(ptr noundef %0, ptr noundef %1, ptr noundef %2) #0 {
  %4 = alloca i32, align 4
  %5 = alloca ptr, align 8
  %6 = alloca ptr, align 8
  %7 = alloca ptr, align 8
  %8 = alloca i32, align 4
  %9 = alloca [2 x %struct.ossl_param_st], align 16
  %10 = alloca ptr, align 8
  %11 = alloca i32, align 4
  %12 = alloca %struct.ossl_param_st, align 8
  %13 = alloca %struct.ossl_param_st, align 8
  store ptr %0, ptr %5, align 8, !tbaa !29
  store ptr %1, ptr %6, align 8, !tbaa !21
  store ptr %2, ptr %7, align 8, !tbaa !21
  call void @llvm.lifetime.start.p0(i64 4, ptr %8) #7
  call void @llvm.lifetime.start.p0(i64 80, ptr %9) #7
  call void @llvm.lifetime.start.p0(i64 8, ptr %10) #7
  store ptr null, ptr %10, align 8, !tbaa !13
  %14 = load ptr, ptr %5, align 8, !tbaa !29
  %15 = call i32 @EVP_PKEY_fromdata_init(ptr noundef %14)
  %16 = icmp ne i32 %15, 1
  br i1 %16, label %17, label %18

17:                                               ; preds = %3
  store i32 -1, ptr %4, align 4
  store i32 1, ptr %11, align 4
  br label %28

18:                                               ; preds = %3
  %19 = getelementptr inbounds [2 x %struct.ossl_param_st], ptr %9, i64 0, i64 0
  call void @llvm.lifetime.start.p0(i64 40, ptr %12) #7
  %20 = load ptr, ptr %6, align 8, !tbaa !21
  %21 = load ptr, ptr %7, align 8, !tbaa !21
  call void @OSSL_PARAM_construct_utf8_string(ptr dead_on_unwind writable sret(%struct.ossl_param_st) align 8 %12, ptr noundef %20, ptr noundef %21, i64 noundef 0)
  call void @llvm.memcpy.p0.p0.i64(ptr align 16 %19, ptr align 8 %12, i64 40, i1 false), !tbaa.struct !37
  call void @llvm.lifetime.end.p0(i64 40, ptr %12) #7
  %22 = getelementptr inbounds [2 x %struct.ossl_param_st], ptr %9, i64 0, i64 1
  call void @llvm.lifetime.start.p0(i64 40, ptr %13) #7
  call void @OSSL_PARAM_construct_end(ptr dead_on_unwind writable sret(%struct.ossl_param_st) align 8 %13)
  call void @llvm.memcpy.p0.p0.i64(ptr align 8 %22, ptr align 8 %13, i64 40, i1 false), !tbaa.struct !37
  call void @llvm.lifetime.end.p0(i64 40, ptr %13) #7
  %23 = load ptr, ptr %5, align 8, !tbaa !29
  %24 = getelementptr inbounds [2 x %struct.ossl_param_st], ptr %9, i64 0, i64 0
  %25 = call i32 @EVP_PKEY_fromdata(ptr noundef %23, ptr noundef %10, i32 noundef 132, ptr noundef %24)
  store i32 %25, ptr %8, align 4, !tbaa !11
  %26 = load ptr, ptr %10, align 8, !tbaa !13
  call void @EVP_PKEY_free(ptr noundef %26)
  %27 = load i32, ptr %8, align 4, !tbaa !11
  store i32 %27, ptr %4, align 4
  store i32 1, ptr %11, align 4
  br label %28

28:                                               ; preds = %18, %17
  call void @llvm.lifetime.end.p0(i64 8, ptr %10) #7
  call void @llvm.lifetime.end.p0(i64 80, ptr %9) #7
  call void @llvm.lifetime.end.p0(i64 4, ptr %8) #7
  %29 = load i32, ptr %4, align 4
  ret i32 %29
}