; Function Attrs: nounwind uwtable
define internal fastcc i32 @set_fromdata_string(ptr noundef %0, ptr noundef %1) unnamed_addr #0 {
  %3 = alloca [2 x %struct.ossl_param_st], align 16
  %4 = alloca ptr, align 8
  %5 = alloca %struct.ossl_param_st, align 8
  call void @llvm.lifetime.start.p0(i64 80, ptr nonnull %3) #7
  call void @llvm.lifetime.start.p0(i64 8, ptr nonnull %4) #7
  store ptr null, ptr %4, align 8, !tbaa !26
  %6 = tail call i32 @EVP_PKEY_fromdata_init(ptr noundef %0) #7
  %.not = icmp eq i32 %6, 1
  br i1 %.not, label %7, label %11

7:                                                ; preds = %2
  call void @OSSL_PARAM_construct_utf8_string(ptr dead_on_unwind nonnull writable sret(%struct.ossl_param_st) align 8 %3, ptr noundef %1, ptr noundef nonnull @.str.168, i64 noundef 0) #7
  %8 = getelementptr inbounds nuw i8, ptr %3, i64 40
  call void @llvm.lifetime.start.p0(i64 40, ptr nonnull %5) #7
  call void @OSSL_PARAM_construct_end(ptr dead_on_unwind nonnull writable sret(%struct.ossl_param_st) align 8 %5) #7
  call void @llvm.memcpy.p0.p0.i64(ptr noundef nonnull align 8 dereferenceable(40) %8, ptr noundef nonnull align 8 dereferenceable(40) %5, i64 40, i1 false), !tbaa.struct !23
  call void @llvm.lifetime.end.p0(i64 40, ptr nonnull %5) #7
  %9 = call i32 @EVP_PKEY_fromdata(ptr noundef %0, ptr noundef nonnull %4, i32 noundef 132, ptr noundef nonnull %3) #7
  %10 = load ptr, ptr %4, align 8, !tbaa !26
  call void @EVP_PKEY_free(ptr noundef %10) #7
  br label %11

11:                                               ; preds = %2, %7
  %.0 = phi i32 [ %9, %7 ], [ -1, %2 ]
  call void @llvm.lifetime.end.p0(i64 8, ptr nonnull %4) #7
  call void @llvm.lifetime.end.p0(i64 80, ptr nonnull %3) #7
  ret i32 %.0
}